(lp0
(lp1
(lp2
(lp3
I2
aI01
aa(lp4
I10
aI00
aa(lp5
I5
aI01
aa(lp6
I3
aI01
aa(lp7
I10
aI00
aa(lp8
I10
aI00
aa(lp9
I10
aI00
aa(lp10
I1
aI01
aa(lp11
I10
aI00
aaa(lp12
(lp13
I10
aI00
aa(lp14
I10
aI00
aa(lp15
I9
aI01
aa(lp16
I8
aI01
aa(lp17
I10
aI00
aa(lp18
I1
aI01
aa(lp19
I10
aI00
aa(lp20
I10
aI00
aa(lp21
I10
aI00
aaa(lp22
(lp23
I10
aI00
aa(lp24
I10
aI00
aa(lp25
I10
aI00
aa(lp26
I10
aI00
aa(lp27
I10
aI00
aa(lp28
I10
aI00
aa(lp29
I6
aI01
aa(lp30
I10
aI00
aa(lp31
I2
aI01
aaa(lp32
(lp33
I9
aI01
aa(lp34
I10
aI00
aa(lp35
I10
aI00
aa(lp36
I1
aI01
aa(lp37
I10
aI00
aa(lp38
I10
aI00
aa(lp39
I10
aI00
aa(lp40
I10
aI00
aa(lp41
I5
aI01
aaa(lp42
(lp43
I10
aI00
aa(lp44
I10
aI00
aa(lp45
I1
aI01
aa(lp46
I10
aI00
aa(lp47
I10
aI00
aa(lp48
I10
aI00
aa(lp49
I3
aI01
aa(lp50
I8
aI01
aa(lp51
I10
aI00
aaa(lp52
(lp53
I10
aI00
aa(lp54
I2
aI01
aa(lp55
I10
aI00
aa(lp56
I10
aI00
aa(lp57
I8
aI01
aa(lp58
I9
aI01
aa(lp59
I10
aI00
aa(lp60
I10
aI00
aa(lp61
I10
aI00
aaa(lp62
(lp63
I10
aI00
aa(lp64
I10
aI00
aa(lp65
I4
aI01
aa(lp66
I10
aI00
aa(lp67
I10
aI00
aa(lp68
I10
aI00
aa(lp69
I10
aI00
aa(lp70
I10
aI00
aa(lp71
I10
aI00
aaa(lp72
(lp73
I1
aI01
aa(lp74
I10
aI00
aa(lp75
I10
aI00
aa(lp76
I10
aI00
aa(lp77
I10
aI00
aa(lp78
I8
aI01
aa(lp79
I10
aI00
aa(lp80
I7
aI01
aa(lp81
I10
aI00
aaa(lp82
(lp83
I10
aI00
aa(lp84
I10
aI00
aa(lp85
I2
aI01
aa(lp86
I7
aI01
aa(lp87
I1
aI01
aa(lp88
I10
aI00
aa(lp89
I4
aI01
aa(lp90
I10
aI00
aa(lp91
I6
aI01
aaaaI29
a.